Certificate Request:
    Data:
        Version: Unknown (-1)
        Subject: C=KR, ST=Seoul, O=test, L=Seoul, CN=test.com
        Subject Public Key Info:
            Public Key Algorithm: rsaEncryption
                Public-Key: (2048 bit)
                Modulus:
                    00:c6:b4:3d:6f:c6:6d:90:7b:27:1d:a7:9c:f7:dc:
                    33:97:78:72:89:6a:96:55:71:bd:36:f8:55:73:d7:
                    18:f6:c5:0f:93:c2:93:a5:09:8f:8c:f8:c2:cc:96:
                    0f:ac:11:ad:c5:38:2d:4c:cd:48:00:b8:7f:df:a0:
                    fd:05:fd:76:9d:71:22:e1:06:be:bb:e5:0e:d3:c3:
                    96:e5:8f:5e:64:f1:e0:67:00:c2:a2:79:ff:31:3b:
                    7f:8e:fa:bf:2b:68:26:79:10:28:21:ff:3f:f4:70:
                    d2:85:57:62:1d:d7:a1:38:14:64:99:c5:38:fc:ba:
                    47:01:f2:13:b9:8b:ca:fb:e1:c0:92:ea:f4:7f:fd:
                    48:ac:11:8e:59:2a:3f:1c:c4:2e:b4:0d:82:8c:96:
                    fe:3c:17:f3:3e:19:7a:29:33:6f:3e:a9:78:ee:87:
                    29:5b:4f:a1:0e:35:3d:c1:78:25:4a:cd:f1:84:5a:
                    dd:33:f6:e4:00:5b:ce:8c:c0:08:5f:0d:83:2b:6b:
                    36:af:0a:c0:b5:a3:41:30:b5:42:11:a9:62:ef:5d:
                    b2:6d:1d:09:3b:a1:09:5c:a7:58:95:9e:11:7e:e5:
                    02:6b:95:1a:35:e5:89:d9:95:69:c3:fd:0c:8a:b6:
                    ef:99:1c:c3:b2:a9:5d:2b:95:ed:13:83:92:72:29:
                    b9:65
                Exponent: 65537 (0x10001)
        Attributes:
            (none)
            Requested Extensions:
    Signature Algorithm: sha512WithRSAEncryption
    Signature Value:
        14:31:a5:63:26:19:a6:0f:8a:ac:db:30:33:8c:08:f8:97:2b:
        e3:29:9f:cf:b5:7b:5b:da:55:c3:a1:84:f9:0d:ec:7d:43:0c:
        c6:38:56:f3:3c:ad:0b:12:53:bb:0c:a3:e7:73:fd:05:ad:fb:
        90:90:7b:57:27:9c:24:ba:c7:ee:33:2f:c0:19:e4:da:b6:10:
        f7:18:92:d4:56:27:82:55:5d:0f:18:95:6d:c6:8a:7f:e5:02:
        67:dc:81:5b:1d:08:66:21:57:43:57:bb:9a:3a:15:84:44:ac:
        c1:04:dd:20:86:5e:b0:b5:40:36:18:b6:a5:ec:4a:0e:6a:d8:
        e0:b9:c7:ab:a3:93:b2:68:d7:ce:92:cc:65:14:18:f8:fa:dd:
        8c:dc:59:4a:10:bd:94:a6:f6:75:a0:fc:c0:41:b9:27:1d:5a:
        26:0c:49:52:3c:dd:70:3d:67:3f:d1:6a:fa:10:d7:9e:40:5d:
        28:95:aa:36:b1:1d:16:fa:ec:d3:a2:9e:15:c0:b6:15:1f:0d:
        e1:f4:49:e1:1a:09:c6:6d:99:bd:53:3f:53:eb:2f:53:77:4c:
        85:61:96:2e:03:5b:0a:48:96:b1:da:12:3d:aa:d3:a4:bd:31:
        48:53:d5:35:75:a8:ef:b2:c4:0f:cb:dd:cc:0c:c7:bb:0b:60:
        90:75:7d:dc
-----BEGIN CERTIFICATE REQUEST-----
MIIClDCCAXwCAQAwTzELMAkGA1UEBhMCS1IxDjAMBgNVBAgMBVNlb3VsMQ0wCwYD
VQQKDAR0ZXN0MQ4wDAYDVQQHDAVTZW91bDERMA8GA1UEAwwIdGVzdC5jb20wggEi
MA0GCSqGSIb3DQEBAQUAA4IBDwAwggEKAoIBAQDGtD1vxm2Qeycdp5z33DOXeHKJ
apZVcb02+FVz1xj2xQ+TwpOlCY+M+MLMlg+sEa3FOC1MzUgAuH/foP0F/XadcSLh
Br675Q7Tw5blj15k8eBnAMKief8xO3+O+r8raCZ5ECgh/z/0cNKFV2Id16E4FGSZ
xTj8ukcB8hO5i8r74cCS6vR//UisEY5ZKj8cxC60DYKMlv48F/M+GXopM28+qXju
hylbT6EONT3BeCVKzfGEWt0z9uQAW86MwAhfDYMrazavCsC1o0EwtUIRqWLvXbJt
HQk7oQlcp1iVnhF+5QJrlRo15YnZlWnD/QyKtu+ZHMOyqV0rle0Tg5JyKbllAgMB
AAGgADANBgkqhkiG9w0BAQ0FAAOCAQEAFDGlYyYZpg+KrNswM4wI+Jcr4ymfz7V7
W9pVw6GE+Q3sfUMMxjhW8zytCxJTuwyj53P9Ba37kJB7VyecJLrH7jMvwBnk2rYQ
9xiS1FYnglVdDxiVbcaKf+UCZ9yBWx0IZiFXQ1e7mjoVhESswQTdIIZesLVANhi2
pexKDmrY4LnHq6OTsmjXzpLMZRQY+PrdjNxZShC9lKb2daD8wEG5Jx1aJgxJUjzd
cD1nP9Fq+hDXnkBdKJWqNrEdFvrs06KeFcC2FR8N4fRJ4RoJxm2ZvVM/U+svU3dM
hWGWLgNbCkiWsdoSParTpL0xSFPVNXWo77LED8vdzAzHuwtgkHV93A==
-----END CERTIFICATE REQUEST-----
