Certificate:
    Data:
        Version: 3 (0x2)
        Serial Number:
                    Signature Algorithm: sha512WithRSAEncryption
        Issuer: C=KR, ST=Seoul, L=Seoul, O=rootCA, OU=rootCA, CN=rootCA.com/emailAddress=rootCA@gmail.com
        Validity
            Not Before: May 16 07:46:38 2024 GMT
            Not After : May 16 07:46:38 2025 GMT
        Subject: C=KR, ST=Seoul, O=test, L=Seoul, CN=test.com
        Subject Public Key Info:
            Public Key Algorithm: rsaEncryption
                Public-Key: (2048 bit)
                Modulus:
                    00:c6:b4:3d:6f:c6:6d:90:7b:27:1d:a7:9c:f7:dc:
                    33:97:78:72:89:6a:96:55:71:bd:36:f8:55:73:d7:
                    18:f6:c5:0f:93:c2:93:a5:09:8f:8c:f8:c2:cc:96:
                    0f:ac:11:ad:c5:38:2d:4c:cd:48:00:b8:7f:df:a0:
                    fd:05:fd:76:9d:71:22:e1:06:be:bb:e5:0e:d3:c3:
                    96:e5:8f:5e:64:f1:e0:67:00:c2:a2:79:ff:31:3b:
                    7f:8e:fa:bf:2b:68:26:79:10:28:21:ff:3f:f4:70:
                    d2:85:57:62:1d:d7:a1:38:14:64:99:c5:38:fc:ba:
                    47:01:f2:13:b9:8b:ca:fb:e1:c0:92:ea:f4:7f:fd:
                    48:ac:11:8e:59:2a:3f:1c:c4:2e:b4:0d:82:8c:96:
                    fe:3c:17:f3:3e:19:7a:29:33:6f:3e:a9:78:ee:87:
                    29:5b:4f:a1:0e:35:3d:c1:78:25:4a:cd:f1:84:5a:
                    dd:33:f6:e4:00:5b:ce:8c:c0:08:5f:0d:83:2b:6b:
                    36:af:0a:c0:b5:a3:41:30:b5:42:11:a9:62:ef:5d:
                    b2:6d:1d:09:3b:a1:09:5c:a7:58:95:9e:11:7e:e5:
                    02:6b:95:1a:35:e5:89:d9:95:69:c3:fd:0c:8a:b6:
                    ef:99:1c:c3:b2:a9:5d:2b:95:ed:13:83:92:72:29:
                    b9:65
                Exponent: 65537 (0x10001)
    Signature Algorithm: sha512WithRSAEncryption
    Signature Value:
        2a:5a:85:60:7f:88:4f:e2:09:0f:93:10:59:77:5c:62:63:d9:
        37:4e:60:01:f0:f9:4d:a5:c3:a3:a0:ca:da:e0:bc:47:28:7d:
        ca:46:1c:6d:0c:39:89:01:fc:66:fd:4e:39:fb:e6:f8:8a:ac:
        f2:81:fb:0d:85:8e:f0:a9:10:3a:d1:57:8b:99:b4:b2:41:de:
        06:78:28:6f:1f:c6:f5:bc:63:ae:81:9e:31:a5:5a:3b:10:0c:
        33:c7:9f:ee:b1:c1:03:c3:04:36:42:91:97:b8:17:66:61:5d:
        44:e6:c5:7c:79:9a:b2:a9:4b:5e:be:6f:2f:d1:fe:ae:9e:2b:
        ce:b8:e6:cf:da:e2:f9:ee:8a:c5:17:0f:9d:c9:87:ea:7b:b7:
        9a:92:e4:33:64:0d:15:32:d5:10:55:09:dd:d0:76:78:b6:7e:
        2f:e3:06:e7:cc:8d:13:0d:cb:29:a1:2b:b7:df:fa:7e:67:34:
        6e:8f:cf:a3:d7:c5:5d:9d:e4:4d:c9:a1:68:a8:98:da:05:1c:
        d1:42:da:68:0e:be:29:20:45:fe:a0:e8:d3:22:1d:83:83:e8:
        f6:bd:67:66:8e:73:84:c4:dd:2c:32:0c:6c:3e:b2:82:da:41:
        f2:1a:7f:94:cf:3e:2b:d6:cc:f2:69:20:42:cd:eb:66:22:be:
        10:1e:eb:02
-----BEGIN CERTIFICATE-----
MIIDTjCCAjagAwIBAgIBADANBgkqhkiG9w0BAQ0FADCBhTELMAkGA1UEBhMCS1Ix
DjAMBgNVBAgMBVNlb3VsMQ4wDAYDVQQHDAVTZW91bDEPMA0GA1UECgwGcm9vdENB
MQ8wDQYDVQQLDAZyb290Q0ExEzARBgNVBAMMCnJvb3RDQS5jb20xHzAdBgkqhkiG
9w0BCQEWEHJvb3RDQUBnbWFpbC5jb20wHhcNMjQwNTE2MDc0NjM4WhcNMjUwNTE2
MDc0NjM4WjBPMQswCQYDVQQGEwJLUjEOMAwGA1UECAwFU2VvdWwxDTALBgNVBAoM
BHRlc3QxDjAMBgNVBAcMBVNlb3VsMREwDwYDVQQDDAh0ZXN0LmNvbTCCASIwDQYJ
KoZIhvcNAQEBBQADggEPADCCAQoCggEBAMa0PW/GbZB7Jx2nnPfcM5d4colqllVx
vTb4VXPXGPbFD5PCk6UJj4z4wsyWD6wRrcU4LUzNSAC4f9+g/QX9dp1xIuEGvrvl
DtPDluWPXmTx4GcAwqJ5/zE7f476vytoJnkQKCH/P/Rw0oVXYh3XoTgUZJnFOPy6
RwHyE7mLyvvhwJLq9H/9SKwRjlkqPxzELrQNgoyW/jwX8z4Zeikzbz6peO6HKVtP
oQ41PcF4JUrN8YRa3TP25ABbzozACF8NgytrNq8KwLWjQTC1QhGpYu9dsm0dCTuh
CVynWJWeEX7lAmuVGjXlidmVacP9DIq275kcw7KpXSuV7RODknIpuWUCAwEAATAN
BgkqhkiG9w0BAQ0FAAOCAQEAKlqFYH+IT+IJD5MQWXdcYmPZN05gAfD5TaXDo6DK
2uC8Ryh9ykYcbQw5iQH8Zv1OOfvm+Iqs8oH7DYWO8KkQOtFXi5m0skHeBngobx/G
9bxjroGeMaVaOxAMM8ef7rHBA8MENkKRl7gXZmFdRObFfHmasqlLXr5vL9H+rp4r
zrjmz9ri+e6KxRcPncmH6nu3mpLkM2QNFTLVEFUJ3dB2eLZ+L+MG58yNEw3LKaEr
t9/6fmc0bo/Po9fFXZ3kTcmhaKiY2gUc0ULaaA6+KSBF/qDo0yIdg4Po9r1nZo5z
hMTdLDIMbD6ygtpB8hp/lM8+K9bM8mkgQs3rZiK+EB7rAg==
-----END CERTIFICATE-----
