Certificate:
    Data:
        Version: 3 (0x2)
        Serial Number:
                    Signature Algorithm: sha512WithRSAEncryption
        Issuer: C=KR, ST=Seoul, L=Seoul, O=rootCA, OU=rootCA, CN=rootCA.com/emailAddress=rootCA@gmail.com
        Validity
            Not Before: May 16 09:06:34 2024 GMT
            Not After : May 16 09:06:34 2025 GMT
        Subject: C=KR, ST=Seoul, O=test, L=Seoul, CN=test.com
        Subject Public Key Info:
            Public Key Algorithm: rsaEncryption
                Public-Key: (2048 bit)
                Modulus:
                    00:c6:b4:3d:6f:c6:6d:90:7b:27:1d:a7:9c:f7:dc:
                    33:97:78:72:89:6a:96:55:71:bd:36:f8:55:73:d7:
                    18:f6:c5:0f:93:c2:93:a5:09:8f:8c:f8:c2:cc:96:
                    0f:ac:11:ad:c5:38:2d:4c:cd:48:00:b8:7f:df:a0:
                    fd:05:fd:76:9d:71:22:e1:06:be:bb:e5:0e:d3:c3:
                    96:e5:8f:5e:64:f1:e0:67:00:c2:a2:79:ff:31:3b:
                    7f:8e:fa:bf:2b:68:26:79:10:28:21:ff:3f:f4:70:
                    d2:85:57:62:1d:d7:a1:38:14:64:99:c5:38:fc:ba:
                    47:01:f2:13:b9:8b:ca:fb:e1:c0:92:ea:f4:7f:fd:
                    48:ac:11:8e:59:2a:3f:1c:c4:2e:b4:0d:82:8c:96:
                    fe:3c:17:f3:3e:19:7a:29:33:6f:3e:a9:78:ee:87:
                    29:5b:4f:a1:0e:35:3d:c1:78:25:4a:cd:f1:84:5a:
                    dd:33:f6:e4:00:5b:ce:8c:c0:08:5f:0d:83:2b:6b:
                    36:af:0a:c0:b5:a3:41:30:b5:42:11:a9:62:ef:5d:
                    b2:6d:1d:09:3b:a1:09:5c:a7:58:95:9e:11:7e:e5:
                    02:6b:95:1a:35:e5:89:d9:95:69:c3:fd:0c:8a:b6:
                    ef:99:1c:c3:b2:a9:5d:2b:95:ed:13:83:92:72:29:
                    b9:65
                Exponent: 65537 (0x10001)
    Signature Algorithm: sha512WithRSAEncryption
    Signature Value:
        6c:95:6b:b5:5d:9b:da:06:d8:88:82:6e:f4:ad:1e:a6:53:06:
        2a:19:a6:80:81:4b:48:1f:b8:31:4b:7e:3c:3d:df:3c:1d:b7:
        a4:63:91:3c:aa:e6:60:3f:9f:fa:0f:a1:18:c9:c9:f9:01:33:
        96:30:94:dd:1b:51:fb:c5:6e:32:12:53:33:2d:40:64:28:43:
        2e:41:a0:d8:a9:01:65:fe:9c:c4:b8:17:ab:5d:b0:57:8a:00:
        90:e2:8c:91:6f:a7:eb:c0:1f:51:00:82:99:92:f0:26:60:d1:
        83:ba:d2:f4:de:02:54:16:34:a2:1e:e5:1c:41:13:9a:66:91:
        ce:5d:7e:b4:bf:27:8c:9b:dc:5a:1b:23:e9:82:1e:82:2a:ee:
        b3:6a:52:72:dd:31:42:bb:13:3c:eb:8d:74:0c:81:92:42:75:
        9b:c1:6f:b3:31:f3:99:26:1b:8d:85:7d:9c:e0:a1:7f:dd:9a:
        99:80:ae:4f:4f:5a:d2:ee:21:e2:bc:4e:3e:5c:a6:d7:0a:93:
        e1:7b:e3:ee:e6:77:36:dc:08:dc:65:b8:df:84:fe:8d:0e:b4:
        6a:f2:f8:ba:be:75:f2:69:b3:d8:b5:0c:42:c8:c6:62:e8:30:
        8c:1c:0f:b9:07:84:1a:e1:10:3d:e1:fe:45:ca:6a:17:17:0d:
        58:50:17:60
-----BEGIN CERTIFICATE-----
MIIDTjCCAjagAwIBAgIBADANBgkqhkiG9w0BAQ0FADCBhTELMAkGA1UEBhMCS1Ix
DjAMBgNVBAgMBVNlb3VsMQ4wDAYDVQQHDAVTZW91bDEPMA0GA1UECgwGcm9vdENB
MQ8wDQYDVQQLDAZyb290Q0ExEzARBgNVBAMMCnJvb3RDQS5jb20xHzAdBgkqhkiG
9w0BCQEWEHJvb3RDQUBnbWFpbC5jb20wHhcNMjQwNTE2MDkwNjM0WhcNMjUwNTE2
MDkwNjM0WjBPMQswCQYDVQQGEwJLUjEOMAwGA1UECAwFU2VvdWwxDTALBgNVBAoM
BHRlc3QxDjAMBgNVBAcMBVNlb3VsMREwDwYDVQQDDAh0ZXN0LmNvbTCCASIwDQYJ
KoZIhvcNAQEBBQADggEPADCCAQoCggEBAMa0PW/GbZB7Jx2nnPfcM5d4colqllVx
vTb4VXPXGPbFD5PCk6UJj4z4wsyWD6wRrcU4LUzNSAC4f9+g/QX9dp1xIuEGvrvl
DtPDluWPXmTx4GcAwqJ5/zE7f476vytoJnkQKCH/P/Rw0oVXYh3XoTgUZJnFOPy6
RwHyE7mLyvvhwJLq9H/9SKwRjlkqPxzELrQNgoyW/jwX8z4Zeikzbz6peO6HKVtP
oQ41PcF4JUrN8YRa3TP25ABbzozACF8NgytrNq8KwLWjQTC1QhGpYu9dsm0dCTuh
CVynWJWeEX7lAmuVGjXlidmVacP9DIq275kcw7KpXSuV7RODknIpuWUCAwEAATAN
BgkqhkiG9w0BAQ0FAAOCAQEAbJVrtV2b2gbYiIJu9K0eplMGKhmmgIFLSB+4MUt+
PD3fPB23pGORPKrmYD+f+g+hGMnJ+QEzljCU3RtR+8VuMhJTMy1AZChDLkGg2KkB
Zf6cxLgXq12wV4oAkOKMkW+n68AfUQCCmZLwJmDRg7rS9N4CVBY0oh7lHEETmmaR
zl1+tL8njJvcWhsj6YIegirus2pSct0xQrsTPOuNdAyBkkJ1m8FvszHzmSYbjYV9
nOChf92amYCuT09a0u4h4rxOPlym1wqT4Xvj7uZ3NtwI3GW434T+jQ60avL4ur51
8mmz2LUMQsjGYugwjBwPuQeEGuEQPeH+RcpqFxcNWFAXYA==
-----END CERTIFICATE-----
