Certificate Request:
    Data:
        Version: Unknown (-1)
        Subject: C=KR, ST=Seoul, O=test, L=Seoul, CN=test.com
        Subject Public Key Info:
            Public Key Algorithm: rsaEncryption
                Public-Key: (2048 bit)
                Modulus:
                    00:c6:b4:3d:6f:c6:6d:90:7b:27:1d:a7:9c:f7:dc:
                    33:97:78:72:89:6a:96:55:71:bd:36:f8:55:73:d7:
                    18:f6:c5:0f:93:c2:93:a5:09:8f:8c:f8:c2:cc:96:
                    0f:ac:11:ad:c5:38:2d:4c:cd:48:00:b8:7f:df:a0:
                    fd:05:fd:76:9d:71:22:e1:06:be:bb:e5:0e:d3:c3:
                    96:e5:8f:5e:64:f1:e0:67:00:c2:a2:79:ff:31:3b:
                    7f:8e:fa:bf:2b:68:26:79:10:28:21:ff:3f:f4:70:
                    d2:85:57:62:1d:d7:a1:38:14:64:99:c5:38:fc:ba:
                    47:01:f2:13:b9:8b:ca:fb:e1:c0:92:ea:f4:7f:fd:
                    48:ac:11:8e:59:2a:3f:1c:c4:2e:b4:0d:82:8c:96:
                    fe:3c:17:f3:3e:19:7a:29:33:6f:3e:a9:78:ee:87:
                    29:5b:4f:a1:0e:35:3d:c1:78:25:4a:cd:f1:84:5a:
                    dd:33:f6:e4:00:5b:ce:8c:c0:08:5f:0d:83:2b:6b:
                    36:af:0a:c0:b5:a3:41:30:b5:42:11:a9:62:ef:5d:
                    b2:6d:1d:09:3b:a1:09:5c:a7:58:95:9e:11:7e:e5:
                    02:6b:95:1a:35:e5:89:d9:95:69:c3:fd:0c:8a:b6:
                    ef:99:1c:c3:b2:a9:5d:2b:95:ed:13:83:92:72:29:
                    b9:65
                Exponent: 65537 (0x10001)
        Attributes:
            Requested Extensions:
                X509v3 Subject Alternative Name: 
                    DNS:example.com
                X509v3 Subject Alternative Name: 
                    DNS:example2.com
    Signature Algorithm: sha512WithRSAEncryption
    Signature Value:
        71:4a:4d:0b:e1:81:09:a4:af:a6:ee:d5:8c:8c:54:b7:72:35:
        e5:8a:0c:1d:67:81:8c:a5:0d:bc:bb:0e:7b:db:4e:63:46:76:
        f3:d5:8d:6f:89:14:0f:25:57:2d:3b:5f:bd:0b:a8:cf:af:bf:
        26:58:f2:05:dd:5f:04:c5:c6:c1:8e:a7:ff:aa:99:87:46:f5:
        3d:c3:c7:82:5e:4f:8d:cc:2c:ba:d7:4b:3c:b4:6e:ca:81:90:
        53:bf:c1:14:fc:e0:76:ae:ba:58:a8:0e:9c:e1:91:70:76:cf:
        41:48:34:a8:48:1a:91:1d:37:8b:21:e3:f1:3a:fa:0f:80:ba:
        71:48:a3:dd:37:ac:07:bc:39:a2:90:ae:c8:6f:ea:e9:c7:37:
        53:c0:58:b3:64:2a:55:f2:76:55:a6:2b:51:34:5d:22:1d:6e:
        c7:7b:e5:92:80:e3:ea:94:ad:6a:8f:41:3c:8a:8a:e6:c5:0b:
        ba:db:3f:e2:ea:3c:c5:75:19:a0:c4:1c:2e:b3:38:3c:e9:2a:
        1e:18:02:ea:39:dc:95:83:20:2e:b2:20:e6:5b:ec:f4:bc:14:
        7f:d8:59:0f:55:e5:fe:40:16:b1:96:1e:54:18:cb:33:e4:8d:
        b0:71:ff:2e:9a:8d:a8:93:d7:2e:e9:11:d5:0e:10:13:11:33:
        66:64:9f:c1
-----BEGIN CERTIFICATE REQUEST-----
MIIC1jCCAb4CAQAwTzELMAkGA1UEBhMCS1IxDjAMBgNVBAgMBVNlb3VsMQ0wCwYD
VQQKDAR0ZXN0MQ4wDAYDVQQHDAVTZW91bDERMA8GA1UEAwwIdGVzdC5jb20wggEi
MA0GCSqGSIb3DQEBAQUAA4IBDwAwggEKAoIBAQDGtD1vxm2Qeycdp5z33DOXeHKJ
apZVcb02+FVz1xj2xQ+TwpOlCY+M+MLMlg+sEa3FOC1MzUgAuH/foP0F/XadcSLh
Br675Q7Tw5blj15k8eBnAMKief8xO3+O+r8raCZ5ECgh/z/0cNKFV2Id16E4FGSZ
xTj8ukcB8hO5i8r74cCS6vR//UisEY5ZKj8cxC60DYKMlv48F/M+GXopM28+qXju
hylbT6EONT3BeCVKzfGEWt0z9uQAW86MwAhfDYMrazavCsC1o0EwtUIRqWLvXbJt
HQk7oQlcp1iVnhF+5QJrlRo15YnZlWnD/QyKtu+ZHMOyqV0rle0Tg5JyKbllAgMB
AAGgQjBABgkqhkiG9w0BCQ4xMzAxMBYGA1UdEQQPMA2CC2V4YW1wbGUuY29tMBcG
A1UdEQQQMA6CDGV4YW1wbGUyLmNvbTANBgkqhkiG9w0BAQ0FAAOCAQEAcUpNC+GB
CaSvpu7VjIxUt3I15YoMHWeBjKUNvLsOe9tOY0Z289WNb4kUDyVXLTtfvQuoz6+/
JljyBd1fBMXGwY6n/6qZh0b1PcPHgl5PjcwsutdLPLRuyoGQU7/BFPzgdq66WKgO
nOGRcHbPQUg0qEgakR03iyHj8Tr6D4C6cUij3TesB7w5opCuyG/q6cc3U8BYs2Qq
VfJ2VaYrUTRdIh1ux3vlkoDj6pStao9BPIqK5sULuts/4uo8xXUZoMQcLrM4POkq
HhgC6jnclYMgLrIg5lvs9LwUf9hZD1Xl/kAWsZYeVBjLM+SNsHH/LpqNqJPXLukR
1Q4QExEzZmSfwQ==
-----END CERTIFICATE REQUEST-----
